; Function Attrs: mustprogress nounwind uwtable
define internal fastcc void @_ZL28catch_cleanup_fix_all_inputsP4NodeS0_S0_(ptr noundef %0, ptr noundef readnone %1, ptr noundef %2) unnamed_addr #0 {
  %4 = getelementptr inbounds i8, ptr %0, i64 28
  %5 = load i32, ptr %4, align 4
  %.not = icmp eq i32 %5, 0
  br i1 %.not, label %._crit_edge, label %.lr.ph

.lr.ph:                                           ; preds = %3
  %6 = getelementptr inbounds i8, ptr %0, i64 8
  %7 = getelementptr inbounds i8, ptr %0, i64 24
  %.not8.i = icmp eq ptr %2, null
  %8 = getelementptr inbounds i8, ptr %2, i64 16
  %9 = getelementptr inbounds i8, ptr %2, i64 32
  %10 = getelementptr inbounds i8, ptr %2, i64 36
  %.not.i.us = icmp eq ptr %1, null
  br i1 %.not8.i, label %.lr.ph.split.us, label %.lr.ph.split

.lr.ph.split.us:                                  ; preds = %.lr.ph, %_ZN4Node7set_reqEjPS_.exit.us
  %.015.us = phi i32 [ %39, %_ZN4Node7set_reqEjPS_.exit.us ], [ 0, %.lr.ph ]
  %11 = load ptr, ptr %6, align 8
  %12 = zext i32 %.015.us to i64
  %13 = getelementptr inbounds ptr, ptr %11, i64 %12
  %14 = load ptr, ptr %13, align 8
  %15 = icmp eq ptr %14, %1
  br i1 %15, label %16, label %_ZN4Node7set_reqEjPS_.exit.us

16:                                               ; preds = %.lr.ph.split.us
  %17 = load i32, ptr %7, align 8
  %18 = icmp ult i32 %.015.us, %17
  br i1 %18, label %21, label %19

19:                                               ; preds = %16
  tail call void @_ZN4Node7rm_precEj(ptr noundef nonnull align 8 dereferenceable(52) %0, i32 noundef %.015.us) #8
  tail call void @_ZN4Node8add_precEPS_(ptr noundef nonnull align 8 dereferenceable(52) %0, ptr noundef null) #8
  %20 = add i32 %.015.us, -1
  br label %_ZN4Node7set_reqEjPS_.exit.us

21:                                               ; preds = %16
  br i1 %.not.i.us, label %_ZN4Node7del_outEPS_.exit.i.us, label %22

22:                                               ; preds = %21
  %23 = getelementptr inbounds i8, ptr %14, i64 16
  %24 = load ptr, ptr %23, align 8
  %25 = icmp eq ptr %24, null
  br i1 %25, label %_ZN4Node7del_outEPS_.exit.i.us, label %26

26:                                               ; preds = %22
  %27 = getelementptr inbounds i8, ptr %14, i64 32
  %28 = load i32, ptr %27, align 8
  %29 = zext i32 %28 to i64
  %30 = getelementptr inbounds ptr, ptr %24, i64 %29
  br label %31

31:                                               ; preds = %31, %26
  %.0.i.i.us = phi ptr [ %30, %26 ], [ %32, %31 ]
  %32 = getelementptr inbounds i8, ptr %.0.i.i.us, i64 -8
  %33 = load ptr, ptr %32, align 8
  %.not.i.i.us = icmp eq ptr %33, %0
  br i1 %.not.i.i.us, label %34, label %31, !llvm.loop !18

34:                                               ; preds = %31
  %35 = add i32 %28, -1
  store i32 %35, ptr %27, align 8
  %36 = zext i32 %35 to i64
  %37 = getelementptr inbounds ptr, ptr %24, i64 %36
  %38 = load ptr, ptr %37, align 8
  store ptr %38, ptr %32, align 8
  br label %_ZN4Node7del_outEPS_.exit.i.us

_ZN4Node7del_outEPS_.exit.i.us:                   ; preds = %34, %22, %21
  store ptr null, ptr %13, align 8
  br label %_ZN4Node7set_reqEjPS_.exit.us

_ZN4Node7set_reqEjPS_.exit.us:                    ; preds = %_ZN4Node7del_outEPS_.exit.i.us, %19, %.lr.ph.split.us
  %.1.us = phi i32 [ %20, %19 ], [ %.015.us, %.lr.ph.split.us ], [ %.015.us, %_ZN4Node7del_outEPS_.exit.i.us ]
  %39 = add i32 %.1.us, 1
  %40 = load i32, ptr %4, align 4
  %41 = icmp ult i32 %39, %40
  br i1 %41, label %.lr.ph.split.us, label %._crit_edge, !llvm.loop !51

.lr.ph.split:                                     ; preds = %.lr.ph, %_ZN4Node7set_reqEjPS_.exit
  %.015 = phi i32 [ %83, %_ZN4Node7set_reqEjPS_.exit ], [ 0, %.lr.ph ]
  %42 = load ptr, ptr %6, align 8
  %43 = zext i32 %.015 to i64
  %44 = getelementptr inbounds ptr, ptr %42, i64 %43
  %45 = load ptr, ptr %44, align 8
  %46 = icmp eq ptr %45, %1
  br i1 %46, label %47, label %_ZN4Node7set_reqEjPS_.exit

47:                                               ; preds = %.lr.ph.split
  %48 = load i32, ptr %7, align 8
  %49 = icmp ult i32 %.015, %48
  br i1 %49, label %50, label %81

50:                                               ; preds = %47
  br i1 %.not.i.us, label %_ZN4Node7del_outEPS_.exit.i, label %51

51:                                               ; preds = %50
  %52 = getelementptr inbounds i8, ptr %45, i64 16
  %53 = load ptr, ptr %52, align 8
  %54 = icmp eq ptr %53, null
  br i1 %54, label %_ZN4Node7del_outEPS_.exit.i, label %55

55:                                               ; preds = %51
  %56 = getelementptr inbounds i8, ptr %45, i64 32
  %57 = load i32, ptr %56, align 8
  %58 = zext i32 %57 to i64
  %59 = getelementptr inbounds ptr, ptr %53, i64 %58
  br label %60

60:                                               ; preds = %60, %55
  %.0.i.i = phi ptr [ %59, %55 ], [ %61, %60 ]
  %61 = getelementptr inbounds i8, ptr %.0.i.i, i64 -8
  %62 = load ptr, ptr %61, align 8
  %.not.i.i = icmp eq ptr %62, %0
  br i1 %.not.i.i, label %63, label %60, !llvm.loop !18

63:                                               ; preds = %60
  %64 = add i32 %57, -1
  store i32 %64, ptr %56, align 8
  %65 = zext i32 %64 to i64
  %66 = getelementptr inbounds ptr, ptr %53, i64 %65
  %67 = load ptr, ptr %66, align 8
  store ptr %67, ptr %61, align 8
  br label %_ZN4Node7del_outEPS_.exit.i

_ZN4Node7del_outEPS_.exit.i:                      ; preds = %63, %51, %50
  store ptr %2, ptr %44, align 8
  %68 = load ptr, ptr %8, align 8
  %69 = icmp eq ptr %68, null
  br i1 %69, label %_ZN4Node7set_reqEjPS_.exit, label %70

70:                                               ; preds = %_ZN4Node7del_outEPS_.exit.i
  %71 = load i32, ptr %9, align 8
  %72 = load i32, ptr %10, align 4
  %73 = icmp eq i32 %71, %72
  br i1 %73, label %74, label %75

74:                                               ; preds = %70
  tail call void @_ZN4Node8out_growEj(ptr noundef nonnull align 8 dereferenceable(52) %2, i32 noundef %71) #8
  %.pre.i.i = load ptr, ptr %8, align 8
  %.pre2.i.i = load i32, ptr %9, align 8
  br label %75

75:                                               ; preds = %74, %70
  %76 = phi i32 [ %.pre2.i.i, %74 ], [ %71, %70 ]
  %77 = phi ptr [ %.pre.i.i, %74 ], [ %68, %70 ]
  %78 = add i32 %76, 1
  store i32 %78, ptr %9, align 8
  %79 = zext i32 %76 to i64
  %80 = getelementptr inbounds ptr, ptr %77, i64 %79
  store ptr %0, ptr %80, align 8
  br label %_ZN4Node7set_reqEjPS_.exit

81:                                               ; preds = %47
  tail call void @_ZN4Node7rm_precEj(ptr noundef nonnull align 8 dereferenceable(52) %0, i32 noundef %.015) #8
  tail call void @_ZN4Node8add_precEPS_(ptr noundef nonnull align 8 dereferenceable(52) %0, ptr noundef nonnull %2) #8
  %82 = add i32 %.015, -1
  br label %_ZN4Node7set_reqEjPS_.exit

_ZN4Node7set_reqEjPS_.exit:                       ; preds = %75, %_ZN4Node7del_outEPS_.exit.i, %.lr.ph.split, %81
  %.1 = phi i32 [ %82, %81 ], [ %.015, %.lr.ph.split ], [ %.015, %_ZN4Node7del_outEPS_.exit.i ], [ %.015, %75 ]
  %83 = add i32 %.1, 1
  %84 = load i32, ptr %4, align 4
  %85 = icmp ult i32 %83, %84
  br i1 %85, label %.lr.ph.split, label %._crit_edge, !llvm.loop !51

._crit_edge:                                      ; preds = %_ZN4Node7set_reqEjPS_.exit, %_ZN4Node7set_reqEjPS_.exit.us, %3
  ret void
}